target datalayout = "e-m:e-p270:32:32-p271:32:32-p272:64:64-i64:64-i128:128-f80:128-n8:16:32:64-S128"
target triple = "x86_64-unknown-linux-gnu"

%"class.datalog::table_signature" = type <{ %"class.datalog::tr_infrastructure<datalog::table_traits>::signature_base", i32, [4 x i8] }>
%"class.datalog::tr_infrastructure<datalog::table_traits>::signature_base" = type { %class.svector }
%class.svector = type { %class.vector }
%class.vector = type { ptr }

; Function Attrs: mustprogress nounwind uwtable
define linkonce_odr hidden noundef zeroext i1 @_Z15is_power_of_twoj(i32 noundef %v) #5 comdat {
entry:
  %v.addr = alloca i32, align 4
  store i32 %v, ptr %v.addr, align 4
  %0 = load i32, ptr %v.addr, align 4
  %1 = load i32, ptr %v.addr, align 4
  %sub = sub i32 %1, 1
  %and = and i32 %0, %sub
  %tobool = icmp ne i32 %and, 0
  br i1 %tobool, label %land.end, label %land.rhs

land.rhs:                                         ; preds = %entry
  %2 = load i32, ptr %v.addr, align 4
  %tobool1 = icmp ne i32 %2, 0
  br label %land.end

land.end:                                         ; preds = %land.rhs, %entry
  %3 = phi i1 [ false, %entry ], [ %tobool1, %land.rhs ]
  ret i1 %3
}

; Function Attrs: mustprogress nounwind uwtable
define linkonce_odr hidden noundef nonnull align 8 dereferenceable(8) ptr @_ZNK6vectorImLb0EjEixEj(ptr noundef nonnull align 8 dereferenceable(8) %this, i32 noundef %idx) #5 comdat align 2 {
entry:
  %this.addr = alloca ptr, align 8
  %idx.addr = alloca i32, align 4
  store ptr %this, ptr %this.addr, align 8
  store i32 %idx, ptr %idx.addr, align 4
  %this1 = load ptr, ptr %this.addr, align 8
  %m_data = getelementptr inbounds %class.vector, ptr %this1, i32 0, i32 0
  %0 = load ptr, ptr %m_data, align 8
  %1 = load i32, ptr %idx.addr, align 4
  %idxprom = zext i32 %1 to i64
  %arrayidx = getelementptr inbounds i64, ptr %0, i64 %idxprom
  ret ptr %arrayidx
}

; Function Attrs: mustprogress nounwind uwtable
define linkonce_odr hidden noundef i32 @_ZNK6vectorImLb0EjE4sizeEv(ptr noundef nonnull align 8 dereferenceable(8) %this) #5 comdat align 2 {
entry:
  %retval = alloca i32, align 4
  %this.addr = alloca ptr, align 8
  store ptr %this, ptr %this.addr, align 8
  %this1 = load ptr, ptr %this.addr, align 8
  %m_data = getelementptr inbounds %class.vector, ptr %this1, i32 0, i32 0
  %0 = load ptr, ptr %m_data, align 8
  %cmp = icmp eq ptr %0, null
  br i1 %cmp, label %if.then, label %if.end

if.then:                                          ; preds = %entry
  store i32 0, ptr %retval, align 4
  br label %return

if.end:                                           ; preds = %entry
  %m_data2 = getelementptr inbounds %class.vector, ptr %this1, i32 0, i32 0
  %1 = load ptr, ptr %m_data2, align 8
  %arrayidx = getelementptr inbounds i32, ptr %1, i64 -1
  %2 = load i32, ptr %arrayidx, align 4
  store i32 %2, ptr %retval, align 4
  br label %return

return:                                           ; preds = %if.end, %if.then
  %3 = load i32, ptr %retval, align 4
  ret i32 %3
}

; Function Attrs: mustprogress nounwind uwtable
define linkonce_odr hidden noundef i32 @_ZNK7datalog15table_signature18functional_columnsEv(ptr noundef nonnull align 8 dereferenceable(12) %this) #5 comdat align 2 {
entry:
  %this.addr = alloca ptr, align 8
  store ptr %this, ptr %this.addr, align 8
  %this1 = load ptr, ptr %this.addr, align 8
  %m_functional_columns = getelementptr inbounds %"class.datalog::table_signature", ptr %this1, i32 0, i32 1
  %0 = load i32, ptr %m_functional_columns, align 8
  ret i32 %0
}

; Function Attrs: mustprogress uwtable
define hidden noundef zeroext i1 @_ZN7datalog22bitvector_table_plugin20can_handle_signatureERKNS_15table_signatureE(ptr noundef nonnull align 8 dereferenceable(32) %this, ptr noundef nonnull align 8 dereferenceable(12) %sig) unnamed_addr #4 align 2 {
entry:
  %retval = alloca i1, align 1
  %this.addr = alloca ptr, align 8
  %sig.addr = alloca ptr, align 8
  %cols = alloca i32, align 4
  %shift = alloca i32, align 4
  %i = alloca i32, align 4
  %s = alloca i32, align 4
  %num_bits = alloca i32, align 4
  %bit_pos = alloca i32, align 4
  store ptr %this, ptr %this.addr, align 8
  store ptr %sig, ptr %sig.addr, align 8
  %0 = load ptr, ptr %sig.addr, align 8
  %call = call noundef i32 @_ZNK7datalog15table_signature18functional_columnsEv(ptr noundef nonnull align 8 dereferenceable(12) %0)
  %cmp = icmp ne i32 %call, 0
  br i1 %cmp, label %if.then, label %if.end

if.then:                                          ; preds = %entry
  store i1 false, ptr %retval, align 1
  br label %return

if.end:                                           ; preds = %entry
  %1 = load ptr, ptr %sig.addr, align 8
  %call2 = call noundef i32 @_ZNK6vectorImLb0EjE4sizeEv(ptr noundef nonnull align 8 dereferenceable(8) %1)
  store i32 %call2, ptr %cols, align 4
  store i32 0, ptr %shift, align 4
  store i32 0, ptr %i, align 4
  br label %for.cond

for.cond:                                         ; preds = %for.inc19, %if.end
  %2 = load i32, ptr %i, align 4
  %3 = load i32, ptr %cols, align 4
  %cmp3 = icmp ult i32 %2, %3
  br i1 %cmp3, label %for.body, label %for.end21

for.body:                                         ; preds = %for.cond
  %4 = load ptr, ptr %sig.addr, align 8
  %5 = load i32, ptr %i, align 4
  %call4 = call noundef nonnull align 8 dereferenceable(8) ptr @_ZNK6vectorImLb0EjEixEj(ptr noundef nonnull align 8 dereferenceable(8) %4, i32 noundef %5)
  %6 = load i64, ptr %call4, align 8
  %conv = trunc i64 %6 to i32
  store i32 %conv, ptr %s, align 4
  %7 = load i32, ptr %s, align 4
  %conv5 = zext i32 %7 to i64
  %8 = load ptr, ptr %sig.addr, align 8
  %9 = load i32, ptr %i, align 4
  %call6 = call noundef nonnull align 8 dereferenceable(8) ptr @_ZNK6vectorImLb0EjEixEj(ptr noundef nonnull align 8 dereferenceable(8) %8, i32 noundef %9)
  %10 = load i64, ptr %call6, align 8
  %cmp7 = icmp ne i64 %conv5, %10
  br i1 %cmp7, label %if.then9, label %lor.lhs.false

lor.lhs.false:                                    ; preds = %for.body
  %11 = load i32, ptr %s, align 4
  %call8 = call noundef zeroext i1 @_Z15is_power_of_twoj(i32 noundef %11)
  br i1 %call8, label %if.end10, label %if.then9

if.then9:                                         ; preds = %lor.lhs.false, %for.body
  store i1 false, ptr %retval, align 1
  br label %return

if.end10:                                         ; preds = %lor.lhs.false
  store i32 0, ptr %num_bits, align 4
  store i32 1, ptr %bit_pos, align 4
  store i32 1, ptr %num_bits, align 4
  br label %for.cond11

for.cond11:                                       ; preds = %for.inc, %if.end10
  %12 = load i32, ptr %num_bits, align 4
  %cmp12 = icmp ult i32 %12, 32
  br i1 %cmp12, label %for.body13, label %for.end

for.body13:                                       ; preds = %for.cond11
  %13 = load i32, ptr %bit_pos, align 4
  %14 = load i32, ptr %s, align 4
  %and = and i32 %13, %14
  %tobool = icmp ne i32 %and, 0
  br i1 %tobool, label %if.then14, label %if.end15

if.then14:                                        ; preds = %for.body13
  br label %for.end

if.end15:                                         ; preds = %for.body13
  %15 = load i32, ptr %bit_pos, align 4
  %shl = shl i32 %15, 1
  store i32 %shl, ptr %bit_pos, align 4
  br label %for.inc

for.inc:                                          ; preds = %if.end15
  %16 = load i32, ptr %num_bits, align 4
  %inc = add i32 %16, 1
  store i32 %inc, ptr %num_bits, align 4
  br label %for.cond11, !llvm.loop !4

for.end:                                          ; preds = %if.then14, %for.cond11
  %17 = load i32, ptr %num_bits, align 4
  %18 = load i32, ptr %shift, align 4
  %add = add i32 %18, %17
  store i32 %add, ptr %shift, align 4
  %19 = load i32, ptr %shift, align 4
  %cmp16 = icmp uge i32 %19, 32
  br i1 %cmp16, label %if.then17, label %if.end18

if.then17:                                        ; preds = %for.end
  store i1 false, ptr %retval, align 1
  br label %return

if.end18:                                         ; preds = %for.end
  br label %for.inc19

for.inc19:                                        ; preds = %if.end18
  %20 = load i32, ptr %i, align 4
  %inc20 = add i32 %20, 1
  store i32 %inc20, ptr %i, align 4
  br label %for.cond, !llvm.loop !6

for.end21:                                        ; preds = %for.cond
  store i1 true, ptr %retval, align 1
  br label %return

return:                                           ; preds = %for.end21, %if.then17, %if.then9, %if.then
  %21 = load i1, ptr %retval, align 1
  ret i1 %21
}