; Function Attrs: mustprogress nofree norecurse nosync nounwind willreturn memory(read, inaccessiblemem: none) uwtable
define hidden noundef zeroext i1 @_ZN7datalog22bitvector_table_plugin20can_handle_signatureERKNS_15table_signatureE(ptr nocapture nonnull readnone align 8 %this, ptr nocapture noundef nonnull readonly align 8 dereferenceable(12) %sig) unnamed_addr #4 align 2 {
entry:
  %m_functional_columns.i = getelementptr inbounds i8, ptr %sig, i64 8
  %0 = load i32, ptr %m_functional_columns.i, align 8
  %cmp.not = icmp eq i32 %0, 0
  br i1 %cmp.not, label %if.end, label %return

if.end:                                           ; preds = %entry
  %1 = load ptr, ptr %sig, align 8
  %cmp.i = icmp eq ptr %1, null
  br i1 %cmp.i, label %return, label %_ZNK6vectorImLb0EjE4sizeEv.exit

_ZNK6vectorImLb0EjE4sizeEv.exit:                  ; preds = %if.end
  %arrayidx.i = getelementptr inbounds i8, ptr %1, i64 -4
  %2 = load i32, ptr %arrayidx.i, align 4
  %cmp322.not = icmp eq i32 %2, 0
  br i1 %cmp322.not, label %return, label %for.body

for.cond:                                         ; preds = %for.end
  %inc20 = add nuw i32 %i.024, 1
  %exitcond.not = icmp eq i32 %inc20, %2
  br i1 %exitcond.not, label %return, label %for.body, !llvm.loop !12

for.body:                                         ; preds = %_ZNK6vectorImLb0EjE4sizeEv.exit, %for.cond
  %i.024 = phi i32 [ %inc20, %for.cond ], [ 0, %_ZNK6vectorImLb0EjE4sizeEv.exit ]
  %shift.023 = phi i32 [ %add, %for.cond ], [ 0, %_ZNK6vectorImLb0EjE4sizeEv.exit ]
  %idxprom.i = zext i32 %i.024 to i64
  %arrayidx.i13 = getelementptr inbounds i64, ptr %1, i64 %idxprom.i
  %3 = load i64, ptr %arrayidx.i13, align 8
  %conv = trunc i64 %3 to i32
  %cmp7.not = icmp ult i64 %3, 4294967296
  %4 = tail call i32 @llvm.ctpop.i32(i32 %conv), !range !13
  %5 = icmp eq i32 %4, 1
  %or.cond17 = select i1 %cmp7.not, i1 %5, i1 false
  br i1 %or.cond17, label %for.cond11.preheader, label %return

for.cond11.preheader:                             ; preds = %for.body
  %and18 = and i32 %conv, 1
  %tobool.not19 = icmp eq i32 %and18, 0
  br i1 %tobool.not19, label %if.end15, label %for.end

if.end15:                                         ; preds = %for.cond11.preheader, %if.end15
  %bit_pos.021 = phi i32 [ %shl, %if.end15 ], [ 1, %for.cond11.preheader ]
  %num_bits.020 = phi i32 [ %inc, %if.end15 ], [ 1, %for.cond11.preheader ]
  %shl = shl i32 %bit_pos.021, 1
  %inc = add nuw nsw i32 %num_bits.020, 1
  %cmp12 = icmp ult i32 %num_bits.020, 31
  %and = and i32 %shl, %conv
  %tobool.not = icmp eq i32 %and, 0
  %or.cond = select i1 %cmp12, i1 %tobool.not, i1 false
  br i1 %or.cond, label %if.end15, label %for.end, !llvm.loop !14

for.end:                                          ; preds = %if.end15, %for.cond11.preheader
  %num_bits.0.lcssa = phi i32 [ 1, %for.cond11.preheader ], [ %inc, %if.end15 ]
  %add = add i32 %num_bits.0.lcssa, %shift.023
  %cmp16 = icmp ugt i32 %add, 31
  br i1 %cmp16, label %return, label %for.cond

return:                                           ; preds = %for.body, %for.end, %for.cond, %if.end, %_ZNK6vectorImLb0EjE4sizeEv.exit, %entry
  %retval.0 = phi i1 [ false, %entry ], [ true, %_ZNK6vectorImLb0EjE4sizeEv.exit ], [ true, %if.end ], [ false, %for.body ], [ false, %for.end ], [ true, %for.cond ]
  ret i1 %retval.0
}